	.file	"toiuu.c"
	.text
	.globl	n
	.data
	.align 4
	.type	n, @object
	.size	n, 4
n:
	.long	100000
	.text
	.globl	demChuSo
	.type	demChuSo, @function
demChuSo:
.LFB0:
	.cfi_startproc
	pushq	%rbp
	.cfi_def_cfa_offset 16
	.cfi_offset 6, -16
	movq	%rsp, %rbp
	.cfi_def_cfa_register 6
	movl	%edi, -20(%rbp)
	movl	$0, -4(%rbp)
	jmp	.L2
.L3:
	addl	$1, -4(%rbp)
	movl	-20(%rbp), %ecx
	movl	$1717986919, %edx
	movl	%ecx, %eax
	imull	%edx
	sarl	$2, %edx
	movl	%ecx, %eax
	sarl	$31, %eax
	subl	%eax, %edx
	movl	%edx, %eax
	movl	%eax, -20(%rbp)
.L2:
	cmpl	$0, -20(%rbp)
	jg	.L3
	movl	-4(%rbp), %eax
	popq	%rbp
	.cfi_def_cfa 7, 8
	ret
	.cfi_endproc
.LFE0:
	.size	demChuSo, .-demChuSo
	.globl	demChuSoLe
	.type	demChuSoLe, @function
demChuSoLe:
.LFB1:
	.cfi_startproc
	pushq	%rbp
	.cfi_def_cfa_offset 16
	.cfi_offset 6, -16
	movq	%rsp, %rbp
	.cfi_def_cfa_register 6
	movl	%edi, -20(%rbp)
	movl	$0, -8(%rbp)
	jmp	.L6
.L8:
	movl	-20(%rbp), %ecx
	movl	$1717986919, %edx
	movl	%ecx, %eax
	imull	%edx
	sarl	$2, %edx
	movl	%ecx, %eax
	sarl	$31, %eax
	subl	%eax, %edx
	movl	%edx, %eax
	sall	$2, %eax
	addl	%edx, %eax
	addl	%eax, %eax
	subl	%eax, %ecx
	movl	%ecx, %eax
	movl	%eax, -4(%rbp)
	movl	-4(%rbp), %eax
	andl	$1, %eax
	testl	%eax, %eax
	je	.L7
	addl	$1, -8(%rbp)
.L7:
	movl	-20(%rbp), %ecx
	movl	$1717986919, %edx
	movl	%ecx, %eax
	imull	%edx
	sarl	$2, %edx
	movl	%ecx, %eax
	sarl	$31, %eax
	subl	%eax, %edx
	movl	%edx, %eax
	movl	%eax, -20(%rbp)
.L6:
	cmpl	$0, -20(%rbp)
	jg	.L8
	movl	-8(%rbp), %eax
	popq	%rbp
	.cfi_def_cfa 7, 8
	ret
	.cfi_endproc
.LFE1:
	.size	demChuSoLe, .-demChuSoLe
	.globl	tbc
	.type	tbc, @function
tbc:
.LFB2:
	.cfi_startproc
	pushq	%rbp
	.cfi_def_cfa_offset 16
	.cfi_offset 6, -16
	movq	%rsp, %rbp
	.cfi_def_cfa_register 6
	subq	$24, %rsp
	movl	%edi, -20(%rbp)
	pxor	%xmm0, %xmm0
	movss	%xmm0, -8(%rbp)
	movl	-20(%rbp), %eax
	movl	%eax, %edi
	call	demChuSo
	movl	%eax, -4(%rbp)
	movl	$0, -12(%rbp)
	jmp	.L11
.L12:
	movl	-20(%rbp), %ecx
	movl	$1717986919, %edx
	movl	%ecx, %eax
	imull	%edx
	sarl	$2, %edx
	movl	%ecx, %eax
	sarl	$31, %eax
	subl	%eax, %edx
	movl	%edx, %eax
	sall	$2, %eax
	addl	%edx, %eax
	addl	%eax, %eax
	subl	%eax, %ecx
	movl	%ecx, %edx
	addl	%edx, -12(%rbp)
	movl	-20(%rbp), %ecx
	movl	$1717986919, %edx
	movl	%ecx, %eax
	imull	%edx
	sarl	$2, %edx
	movl	%ecx, %eax
	sarl	$31, %eax
	subl	%eax, %edx
	movl	%edx, %eax
	movl	%eax, -20(%rbp)
.L11:
	cmpl	$0, -20(%rbp)
	jg	.L12
	cvtsi2ss	-12(%rbp), %xmm0
	cvtsi2ss	-4(%rbp), %xmm1
	divss	%xmm1, %xmm0
	movss	%xmm0, -8(%rbp)
	movss	-8(%rbp), %xmm0
	leave
	.cfi_def_cfa 7, 8
	ret
	.cfi_endproc
.LFE2:
	.size	tbc, .-tbc
	.section	.rodata
.LC1:
	.string	"So chu so cua n: %d\n"
.LC2:
	.string	"So chu so le cua n: %d\n"
.LC3:
	.string	"TBC cac chu so cua n: %0.2f"
.LC5:
	.string	"time: %f"
	.text
	.globl	main
	.type	main, @function
main:
.LFB3:
	.cfi_startproc
	pushq	%rbp
	.cfi_def_cfa_offset 16
	.cfi_offset 6, -16
	movq	%rsp, %rbp
	.cfi_def_cfa_register 6
	subq	$48, %rsp
	call	clock@PLT
	movq	%rax, -24(%rbp)
	movl	n(%rip), %eax
	movl	%eax, %edi
	call	demChuSo
	movl	%eax, %esi
	leaq	.LC1(%rip), %rdi
	movl	$0, %eax
	call	printf@PLT
	movl	n(%rip), %eax
	movl	%eax, %edi
	call	demChuSoLe
	movl	%eax, %esi
	leaq	.LC2(%rip), %rdi
	movl	$0, %eax
	call	printf@PLT
	movl	n(%rip), %eax
	movl	%eax, %edi
	call	tbc
	cvtss2sd	%xmm0, %xmm0
	leaq	.LC3(%rip), %rdi
	movl	$1, %eax
	call	printf@PLT
	call	clock@PLT
	movq	%rax, -16(%rbp)
	movq	-16(%rbp), %rax
	subq	-24(%rbp), %rax
	cvtsi2sdq	%rax, %xmm0
	movsd	.LC4(%rip), %xmm1
	divsd	%xmm1, %xmm0
	movsd	%xmm0, -8(%rbp)
	movq	-8(%rbp), %rax
	movq	%rax, -40(%rbp)
	movsd	-40(%rbp), %xmm0
	leaq	.LC5(%rip), %rdi
	movl	$1, %eax
	call	printf@PLT
	xorl	%eax, %eax
	leave
	.cfi_def_cfa 7, 8
	ret
	.cfi_endproc
.LFE3:
	.size	main, .-main
	.section	.rodata
	.align 8
.LC4:
	.long	0
	.long	1093567616
	.ident	"GCC: (Ubuntu 7.5.0-3ubuntu1~18.04) 7.5.0"
	.section	.note.GNU-stack,"",@progbits
